target datalayout = "e-m:e-p270:32:32-p271:32:32-p272:64:64-i64:64-i128:128-f80:128-n8:16:32:64-S128"
target triple = "x86_64-pc-linux-gnu"

%"class.std::__cxx11::basic_string" = type { %"struct.std::__cxx11::basic_string<char>::_Alloc_hider", i64, %union.anon }
%"struct.std::__cxx11::basic_string<char>::_Alloc_hider" = type { ptr }
%union.anon = type { i64, [8 x i8] }

; Function Attrs: mustprogress uwtable
define internal void @_ZN4JsonL15codePointToUTF8B5cxx11Ej(ptr dead_on_unwind noalias writable sret(%"class.std::__cxx11::basic_string") align 8 %0, i32 noundef %1) #5 personality ptr @__gxx_personality_v0 {
  %3 = alloca ptr, align 8
  %4 = alloca i32, align 4
  %5 = alloca i1, align 1
  %6 = alloca ptr, align 8
  %7 = alloca i32, align 4
  store ptr %0, ptr %3, align 8
  store i32 %1, ptr %4, align 4
  store i1 false, ptr %5, align 1
  call void @_ZNSt7__cxx1112basic_stringIcSt11char_traitsIcESaIcEEC1Ev(ptr noundef nonnull align 8 dereferenceable(32) %0) #3
  %8 = load i32, ptr %4, align 4
  %9 = icmp ule i32 %8, 127
  br i1 %9, label %10, label %20

10:                                               ; preds = %2
  invoke void @_ZNSt7__cxx1112basic_stringIcSt11char_traitsIcESaIcEE6resizeEm(ptr noundef nonnull align 8 dereferenceable(32) %0, i64 noundef 1)
          to label %11 unwind label %16

11:                                               ; preds = %10
  %12 = load i32, ptr %4, align 4
  %13 = trunc i32 %12 to i8
  %14 = invoke noundef nonnull align 1 dereferenceable(1) ptr @_ZNSt7__cxx1112basic_stringIcSt11char_traitsIcESaIcEEixEm(ptr noundef nonnull align 8 dereferenceable(32) %0, i64 noundef 0)
          to label %15 unwind label %16

15:                                               ; preds = %11
  store i8 %13, ptr %14, align 1
  br label %98

16:                                               ; preds = %87, %80, %73, %67, %66, %55, %48, %42, %41, %30, %24, %23, %11, %10
  %17 = landingpad { ptr, i32 }
          cleanup
  %18 = extractvalue { ptr, i32 } %17, 0
  store ptr %18, ptr %6, align 8
  %19 = extractvalue { ptr, i32 } %17, 1
  store i32 %19, ptr %7, align 4
  call void @_ZNSt7__cxx1112basic_stringIcSt11char_traitsIcESaIcEED1Ev(ptr noundef nonnull align 8 dereferenceable(32) %0) #3
  br label %102

20:                                               ; preds = %2
  %21 = load i32, ptr %4, align 4
  %22 = icmp ule i32 %21, 2047
  br i1 %22, label %23, label %38

23:                                               ; preds = %20
  invoke void @_ZNSt7__cxx1112basic_stringIcSt11char_traitsIcESaIcEE6resizeEm(ptr noundef nonnull align 8 dereferenceable(32) %0, i64 noundef 2)
          to label %24 unwind label %16

24:                                               ; preds = %23
  %25 = load i32, ptr %4, align 4
  %26 = and i32 63, %25
  %27 = or i32 128, %26
  %28 = trunc i32 %27 to i8
  %29 = invoke noundef nonnull align 1 dereferenceable(1) ptr @_ZNSt7__cxx1112basic_stringIcSt11char_traitsIcESaIcEEixEm(ptr noundef nonnull align 8 dereferenceable(32) %0, i64 noundef 1)
          to label %30 unwind label %16

30:                                               ; preds = %24
  store i8 %28, ptr %29, align 1
  %31 = load i32, ptr %4, align 4
  %32 = lshr i32 %31, 6
  %33 = and i32 31, %32
  %34 = or i32 192, %33
  %35 = trunc i32 %34 to i8
  %36 = invoke noundef nonnull align 1 dereferenceable(1) ptr @_ZNSt7__cxx1112basic_stringIcSt11char_traitsIcESaIcEEixEm(ptr noundef nonnull align 8 dereferenceable(32) %0, i64 noundef 0)
          to label %37 unwind label %16

37:                                               ; preds = %30
  store i8 %35, ptr %36, align 1
  br label %97

38:                                               ; preds = %20
  %39 = load i32, ptr %4, align 4
  %40 = icmp ule i32 %39, 65535
  br i1 %40, label %41, label %63

41:                                               ; preds = %38
  invoke void @_ZNSt7__cxx1112basic_stringIcSt11char_traitsIcESaIcEE6resizeEm(ptr noundef nonnull align 8 dereferenceable(32) %0, i64 noundef 3)
          to label %42 unwind label %16

42:                                               ; preds = %41
  %43 = load i32, ptr %4, align 4
  %44 = and i32 63, %43
  %45 = or i32 128, %44
  %46 = trunc i32 %45 to i8
  %47 = invoke noundef nonnull align 1 dereferenceable(1) ptr @_ZNSt7__cxx1112basic_stringIcSt11char_traitsIcESaIcEEixEm(ptr noundef nonnull align 8 dereferenceable(32) %0, i64 noundef 2)
          to label %48 unwind label %16

48:                                               ; preds = %42
  store i8 %46, ptr %47, align 1
  %49 = load i32, ptr %4, align 4
  %50 = lshr i32 %49, 6
  %51 = and i32 63, %50
  %52 = or i32 128, %51
  %53 = trunc i32 %52 to i8
  %54 = invoke noundef nonnull align 1 dereferenceable(1) ptr @_ZNSt7__cxx1112basic_stringIcSt11char_traitsIcESaIcEEixEm(ptr noundef nonnull align 8 dereferenceable(32) %0, i64 noundef 1)
          to label %55 unwind label %16

55:                                               ; preds = %48
  store i8 %53, ptr %54, align 1
  %56 = load i32, ptr %4, align 4
  %57 = lshr i32 %56, 12
  %58 = and i32 15, %57
  %59 = or i32 224, %58
  %60 = trunc i32 %59 to i8
  %61 = invoke noundef nonnull align 1 dereferenceable(1) ptr @_ZNSt7__cxx1112basic_stringIcSt11char_traitsIcESaIcEEixEm(ptr noundef nonnull align 8 dereferenceable(32) %0, i64 noundef 0)
          to label %62 unwind label %16

62:                                               ; preds = %55
  store i8 %60, ptr %61, align 1
  br label %96

63:                                               ; preds = %38
  %64 = load i32, ptr %4, align 4
  %65 = icmp ule i32 %64, 1114111
  br i1 %65, label %66, label %95

66:                                               ; preds = %63
  invoke void @_ZNSt7__cxx1112basic_stringIcSt11char_traitsIcESaIcEE6resizeEm(ptr noundef nonnull align 8 dereferenceable(32) %0, i64 noundef 4)
          to label %67 unwind label %16

67:                                               ; preds = %66
  %68 = load i32, ptr %4, align 4
  %69 = and i32 63, %68
  %70 = or i32 128, %69
  %71 = trunc i32 %70 to i8
  %72 = invoke noundef nonnull align 1 dereferenceable(1) ptr @_ZNSt7__cxx1112basic_stringIcSt11char_traitsIcESaIcEEixEm(ptr noundef nonnull align 8 dereferenceable(32) %0, i64 noundef 3)
          to label %73 unwind label %16

73:                                               ; preds = %67
  store i8 %71, ptr %72, align 1
  %74 = load i32, ptr %4, align 4
  %75 = lshr i32 %74, 6
  %76 = and i32 63, %75
  %77 = or i32 128, %76
  %78 = trunc i32 %77 to i8
  %79 = invoke noundef nonnull align 1 dereferenceable(1) ptr @_ZNSt7__cxx1112basic_stringIcSt11char_traitsIcESaIcEEixEm(ptr noundef nonnull align 8 dereferenceable(32) %0, i64 noundef 2)
          to label %80 unwind label %16

80:                                               ; preds = %73
  store i8 %78, ptr %79, align 1
  %81 = load i32, ptr %4, align 4
  %82 = lshr i32 %81, 12
  %83 = and i32 63, %82
  %84 = or i32 128, %83
  %85 = trunc i32 %84 to i8
  %86 = invoke noundef nonnull align 1 dereferenceable(1) ptr @_ZNSt7__cxx1112basic_stringIcSt11char_traitsIcESaIcEEixEm(ptr noundef nonnull align 8 dereferenceable(32) %0, i64 noundef 1)
          to label %87 unwind label %16

87:                                               ; preds = %80
  store i8 %85, ptr %86, align 1
  %88 = load i32, ptr %4, align 4
  %89 = lshr i32 %88, 18
  %90 = and i32 7, %89
  %91 = or i32 240, %90
  %92 = trunc i32 %91 to i8
  %93 = invoke noundef nonnull align 1 dereferenceable(1) ptr @_ZNSt7__cxx1112basic_stringIcSt11char_traitsIcESaIcEEixEm(ptr noundef nonnull align 8 dereferenceable(32) %0, i64 noundef 0)
          to label %94 unwind label %16

94:                                               ; preds = %87
  store i8 %92, ptr %93, align 1
  br label %95

95:                                               ; preds = %94, %63
  br label %96

96:                                               ; preds = %95, %62
  br label %97

97:                                               ; preds = %96, %37
  br label %98

98:                                               ; preds = %97, %15
  store i1 true, ptr %5, align 1
  %99 = load i1, ptr %5, align 1
  br i1 %99, label %101, label %100

100:                                              ; preds = %98
  call void @_ZNSt7__cxx1112basic_stringIcSt11char_traitsIcESaIcEED1Ev(ptr noundef nonnull align 8 dereferenceable(32) %0) #3
  br label %101

101:                                              ; preds = %100, %98
  ret void

102:                                              ; preds = %16
  %103 = load ptr, ptr %6, align 8
  %104 = load i32, ptr %7, align 4
  %105 = insertvalue { ptr, i32 } poison, ptr %103, 0
  %106 = insertvalue { ptr, i32 } %105, i32 %104, 1
  resume { ptr, i32 } %106
}