; Function Attrs: mustprogress uwtable
define internal fastcc void @_ZN4JsonL15codePointToUTF8B5cxx11Ej(ptr dead_on_unwind noalias nonnull writable align 8 %0, i32 noundef %1) unnamed_addr #6 personality ptr @__gxx_personality_v0 {
  tail call void @_ZNSt7__cxx1112basic_stringIcSt11char_traitsIcESaIcEEC1Ev(ptr noundef nonnull align 8 dereferenceable(32) %0) #25
  %3 = icmp ult i32 %1, 128
  br i1 %3, label %4, label %11

4:                                                ; preds = %2
  invoke void @_ZNSt7__cxx1112basic_stringIcSt11char_traitsIcESaIcEE6resizeEm(ptr noundef nonnull align 8 dereferenceable(32) %0, i64 noundef 1)
          to label %5 unwind label %9

5:                                                ; preds = %4
  %6 = invoke noundef nonnull align 1 dereferenceable(1) ptr @_ZNSt7__cxx1112basic_stringIcSt11char_traitsIcESaIcEEixEm(ptr noundef nonnull align 8 dereferenceable(32) %0, i64 noundef 0)
          to label %7 unwind label %9

7:                                                ; preds = %5
  %8 = trunc i32 %1 to i8
  store i8 %8, ptr %6, align 1
  br label %71

9:                                                ; preds = %61, %55, %50, %48, %47, %35, %30, %28, %27, %16, %14, %13, %5, %4
  %10 = landingpad { ptr, i32 }
          cleanup
  tail call void @_ZNSt7__cxx1112basic_stringIcSt11char_traitsIcESaIcEED1Ev(ptr noundef nonnull align 8 dereferenceable(32) %0) #25
  resume { ptr, i32 } %10

11:                                               ; preds = %2
  %12 = icmp ult i32 %1, 2048
  br i1 %12, label %13, label %25

13:                                               ; preds = %11
  invoke void @_ZNSt7__cxx1112basic_stringIcSt11char_traitsIcESaIcEE6resizeEm(ptr noundef nonnull align 8 dereferenceable(32) %0, i64 noundef 2)
          to label %14 unwind label %9

14:                                               ; preds = %13
  %15 = invoke noundef nonnull align 1 dereferenceable(1) ptr @_ZNSt7__cxx1112basic_stringIcSt11char_traitsIcESaIcEEixEm(ptr noundef nonnull align 8 dereferenceable(32) %0, i64 noundef 1)
          to label %16 unwind label %9

16:                                               ; preds = %14
  %17 = trunc i32 %1 to i8
  %18 = and i8 %17, 63
  %19 = or disjoint i8 %18, -128
  store i8 %19, ptr %15, align 1
  %20 = invoke noundef nonnull align 1 dereferenceable(1) ptr @_ZNSt7__cxx1112basic_stringIcSt11char_traitsIcESaIcEEixEm(ptr noundef nonnull align 8 dereferenceable(32) %0, i64 noundef 0)
          to label %21 unwind label %9

21:                                               ; preds = %16
  %22 = lshr i32 %1, 6
  %23 = trunc i32 %22 to i8
  %24 = or disjoint i8 %23, -64
  store i8 %24, ptr %20, align 1
  br label %71

25:                                               ; preds = %11
  %26 = icmp ult i32 %1, 65536
  br i1 %26, label %27, label %45

27:                                               ; preds = %25
  invoke void @_ZNSt7__cxx1112basic_stringIcSt11char_traitsIcESaIcEE6resizeEm(ptr noundef nonnull align 8 dereferenceable(32) %0, i64 noundef 3)
          to label %28 unwind label %9

28:                                               ; preds = %27
  %29 = invoke noundef nonnull align 1 dereferenceable(1) ptr @_ZNSt7__cxx1112basic_stringIcSt11char_traitsIcESaIcEEixEm(ptr noundef nonnull align 8 dereferenceable(32) %0, i64 noundef 2)
          to label %30 unwind label %9

30:                                               ; preds = %28
  %31 = trunc i32 %1 to i8
  %32 = and i8 %31, 63
  %33 = or disjoint i8 %32, -128
  store i8 %33, ptr %29, align 1
  %34 = invoke noundef nonnull align 1 dereferenceable(1) ptr @_ZNSt7__cxx1112basic_stringIcSt11char_traitsIcESaIcEEixEm(ptr noundef nonnull align 8 dereferenceable(32) %0, i64 noundef 1)
          to label %35 unwind label %9

35:                                               ; preds = %30
  %36 = lshr i32 %1, 6
  %37 = trunc i32 %36 to i8
  %38 = and i8 %37, 63
  %39 = or disjoint i8 %38, -128
  store i8 %39, ptr %34, align 1
  %40 = invoke noundef nonnull align 1 dereferenceable(1) ptr @_ZNSt7__cxx1112basic_stringIcSt11char_traitsIcESaIcEEixEm(ptr noundef nonnull align 8 dereferenceable(32) %0, i64 noundef 0)
          to label %41 unwind label %9

41:                                               ; preds = %35
  %42 = lshr i32 %1, 12
  %43 = trunc i32 %42 to i8
  %44 = or disjoint i8 %43, -32
  store i8 %44, ptr %40, align 1
  br label %71

45:                                               ; preds = %25
  %46 = icmp ult i32 %1, 1114112
  br i1 %46, label %47, label %71

47:                                               ; preds = %45
  invoke void @_ZNSt7__cxx1112basic_stringIcSt11char_traitsIcESaIcEE6resizeEm(ptr noundef nonnull align 8 dereferenceable(32) %0, i64 noundef 4)
          to label %48 unwind label %9

48:                                               ; preds = %47
  %49 = invoke noundef nonnull align 1 dereferenceable(1) ptr @_ZNSt7__cxx1112basic_stringIcSt11char_traitsIcESaIcEEixEm(ptr noundef nonnull align 8 dereferenceable(32) %0, i64 noundef 3)
          to label %50 unwind label %9

50:                                               ; preds = %48
  %51 = trunc i32 %1 to i8
  %52 = and i8 %51, 63
  %53 = or disjoint i8 %52, -128
  store i8 %53, ptr %49, align 1
  %54 = invoke noundef nonnull align 1 dereferenceable(1) ptr @_ZNSt7__cxx1112basic_stringIcSt11char_traitsIcESaIcEEixEm(ptr noundef nonnull align 8 dereferenceable(32) %0, i64 noundef 2)
          to label %55 unwind label %9

55:                                               ; preds = %50
  %56 = lshr i32 %1, 6
  %57 = trunc i32 %56 to i8
  %58 = and i8 %57, 63
  %59 = or disjoint i8 %58, -128
  store i8 %59, ptr %54, align 1
  %60 = invoke noundef nonnull align 1 dereferenceable(1) ptr @_ZNSt7__cxx1112basic_stringIcSt11char_traitsIcESaIcEEixEm(ptr noundef nonnull align 8 dereferenceable(32) %0, i64 noundef 1)
          to label %61 unwind label %9

61:                                               ; preds = %55
  %62 = lshr i32 %1, 12
  %63 = trunc i32 %62 to i8
  %64 = and i8 %63, 63
  %65 = or disjoint i8 %64, -128
  store i8 %65, ptr %60, align 1
  %66 = invoke noundef nonnull align 1 dereferenceable(1) ptr @_ZNSt7__cxx1112basic_stringIcSt11char_traitsIcESaIcEEixEm(ptr noundef nonnull align 8 dereferenceable(32) %0, i64 noundef 0)
          to label %67 unwind label %9

67:                                               ; preds = %61
  %68 = lshr i32 %1, 18
  %69 = trunc i32 %68 to i8
  %70 = or disjoint i8 %69, -16
  store i8 %70, ptr %66, align 1
  br label %71

71:                                               ; preds = %7, %41, %67, %45, %21
  ret void
}